target datalayout = "e-m:e-p270:32:32-p271:32:32-p272:64:64-i64:64-i128:128-f80:128-n8:16:32:64-S128"
target triple = "x86_64-pc-linux-gnu"

%struct._zend_compiler_globals = type { %struct._zend_stack, ptr, ptr, i32, ptr, ptr, ptr, ptr, i8, i8, i8, i8, i8, %struct._zend_llist, ptr, i8, i8, i8, i8, ptr, i32, i32, %struct._zend_oparray_context, %struct._zend_file_context, ptr, %struct._zend_array, ptr, i64, i8, i8, i8, ptr, ptr, %struct._zend_stack, ptr, i32, ptr, ptr, i64, i64, ptr, ptr, ptr, ptr, i32, ptr, i32, %struct._zend_stack }
%struct._zend_llist = type { ptr, ptr, i64, i64, ptr, i8, ptr }
%struct._zend_oparray_context = type { ptr, ptr, i32, i32, i32, i32, i32, i32, i32, ptr, ptr, ptr, i32, i8 }
%struct._zend_file_context = type { %struct._zend_declarables, ptr, i8, i8, ptr, ptr, ptr, %struct._zend_array }
%struct._zend_declarables = type { i64 }
%struct._zend_array = type { %struct._zend_refcounted_h, %union.anon.1, i32, %union.anon.2, i32, i32, i32, i32, i64, ptr }
%struct._zend_refcounted_h = type { i32, %union.anon.0 }
%union.anon.0 = type { i32 }
%union.anon.1 = type { i32 }
%union.anon.2 = type { ptr }
%struct._zend_stack = type { i32, i32, i32, ptr }
%struct._zend_executor_globals = type { %struct._zval_struct, %struct._zval_struct, [32 x ptr], ptr, ptr, %struct._zend_array, %struct._zend_array, ptr, i32, i8, %struct._zval_struct, i32, ptr, ptr, ptr, ptr, ptr, ptr, i64, ptr, ptr, i32, ptr, i32, i64, i32, i32, i32, i8, i8, %struct.zend_atomic_bool_s, %struct.zend_atomic_bool_s, ptr, i64, ptr, ptr, %struct._zend_array, %struct._zend_array, i32, i8, %struct._zval_struct, %struct._zval_struct, %struct._zend_stack, %struct._zend_stack, %struct._zend_stack, ptr, i32, i32, i64, ptr, ptr, ptr, %struct._zend_objects_store, %struct._zend_lazy_objects_store, ptr, ptr, ptr, [3 x %struct._zend_op], ptr, i8, i8, i64, i32, i32, ptr, [16 x %struct._HashTableIterator], ptr, %union._zend_function, %struct._zend_op, %struct._zend_array, i64, %struct.zend_get_gc_buffer, ptr, ptr, ptr, i64, i8, i32, ptr, ptr, i64, %struct._zend_call_stack, i64, i64, %struct._zend_strtod_state, [6 x ptr] }
%struct.zend_atomic_bool_s = type { i8 }
%struct._zval_struct = type { %union._zend_value, %union.anon.9, %union.anon.12 }
%union._zend_value = type { i64 }
%union.anon.9 = type { i32 }
%union.anon.12 = type { i32 }
%struct._zend_objects_store = type { ptr, i32, i32, i32 }
%struct._zend_lazy_objects_store = type { %struct._zend_array }
%struct._HashTableIterator = type { ptr, i32, i32 }
%union._zend_function = type { %struct._zend_op_array }
%struct._zend_op_array = type { i8, [3 x i8], i32, ptr, ptr, ptr, i32, i32, ptr, ptr, ptr, ptr, i32, ptr, i32, i32, i32, ptr, ptr, ptr, ptr, ptr, i32, i32, ptr, ptr, ptr, i32, i32, i32, i32, ptr, ptr, [6 x ptr] }
%struct._zend_op = type { ptr, %union._znode_op, %union._znode_op, %union._znode_op, i32, i32, i8, i8, i8, i8 }
%union._znode_op = type { i32 }
%struct.zend_get_gc_buffer = type { ptr, ptr, ptr }
%struct._zend_call_stack = type { ptr, i64 }
%struct._zend_strtod_state = type { [8 x ptr], ptr, ptr }
%struct._zend_string = type { %struct._zend_refcounted_h, i64, i64, [1 x i8] }
%struct._zend_class_entry = type { i8, ptr, %union.anon, i32, i32, i32, i32, ptr, ptr, ptr, %struct._zend_array, %struct._zend_array, %struct._zend_array, ptr, ptr, ptr, ptr, ptr, ptr, ptr, ptr, ptr, ptr, ptr, ptr, ptr, ptr, ptr, ptr, ptr, ptr, ptr, %union.anon.3, ptr, ptr, ptr, ptr, i32, i32, i32, i32, %union.anon.4, ptr, ptr, ptr, ptr, i32, ptr, ptr, %union.anon.5 }
%union.anon = type { ptr }
%union.anon.3 = type { ptr }
%union.anon.4 = type { ptr }
%union.anon.5 = type { %struct.anon.6 }
%struct.anon.6 = type { ptr, i32, i32 }

@compiler_globals = external global %struct._zend_compiler_globals, align 8
@executor_globals = external global %struct._zend_executor_globals, align 8
@.str.32 = private unnamed_addr constant [32 x i8] c"%s must be registered before %s\00", align 1

; Function Attrs: alwaysinline nounwind uwtable
define internal i32 @zend_gc_delref(ptr noundef %0) #3 {
  %2 = alloca ptr, align 8
  store ptr %0, ptr %2, align 8, !tbaa !101
  %3 = load ptr, ptr %2, align 8, !tbaa !101
  %4 = getelementptr inbounds nuw %struct._zend_refcounted_h, ptr %3, i32 0, i32 0
  %5 = load i32, ptr %4, align 4, !tbaa !103
  %6 = icmp ugt i32 %5, 0
  call void @llvm.assume(i1 %6)
  br label %7

7:                                                ; preds = %1
  br label %8

8:                                                ; preds = %7
  %9 = load ptr, ptr %2, align 8, !tbaa !101
  %10 = getelementptr inbounds nuw %struct._zend_refcounted_h, ptr %9, i32 0, i32 0
  %11 = load i32, ptr %10, align 4, !tbaa !103
  %12 = add i32 %11, -1
  store i32 %12, ptr %10, align 4, !tbaa !103
  ret i32 %12
}

; Function Attrs: alwaysinline nounwind uwtable
define internal i32 @zval_gc_flags(i32 noundef %0) #3 {
  %2 = alloca i32, align 4
  store i32 %0, ptr %2, align 4, !tbaa !4
  %3 = load i32, ptr %2, align 4, !tbaa !4
  %4 = lshr i32 %3, 0
  %5 = and i32 %4, 1008
  ret i32 %5
}

; Function Attrs: nounwind uwtable
define internal zeroext i1 @class_visible(ptr noundef %0) #0 {
  %2 = alloca i1, align 1
  %3 = alloca ptr, align 8
  store ptr %0, ptr %3, align 8, !tbaa !8
  %4 = load ptr, ptr %3, align 8, !tbaa !8
  %5 = getelementptr inbounds nuw %struct._zend_class_entry, ptr %4, i32 0, i32 0
  %6 = load i8, ptr %5, align 8, !tbaa !44
  %7 = sext i8 %6 to i32
  %8 = icmp eq i32 %7, 1
  br i1 %8, label %9, label %14

9:                                                ; preds = %1
  %10 = load i32, ptr getelementptr inbounds nuw (%struct._zend_compiler_globals, ptr @compiler_globals, i32 0, i32 21), align 4, !tbaa !183
  %11 = and i32 %10, 16
  %12 = icmp ne i32 %11, 0
  %13 = xor i1 %12, true
  store i1 %13, ptr %2, align 1
  br label %32

14:                                               ; preds = %1
  %15 = load ptr, ptr %3, align 8, !tbaa !8
  %16 = getelementptr inbounds nuw %struct._zend_class_entry, ptr %15, i32 0, i32 0
  %17 = load i8, ptr %16, align 8, !tbaa !44
  %18 = sext i8 %17 to i32
  %19 = icmp eq i32 %18, 2
  call void @llvm.assume(i1 %19)
  %20 = load i32, ptr getelementptr inbounds nuw (%struct._zend_compiler_globals, ptr @compiler_globals, i32 0, i32 21), align 4, !tbaa !183
  %21 = and i32 %20, 8192
  %22 = icmp ne i32 %21, 0
  br i1 %22, label %23, label %30

23:                                               ; preds = %14
  %24 = load ptr, ptr %3, align 8, !tbaa !8
  %25 = getelementptr inbounds nuw %struct._zend_class_entry, ptr %24, i32 0, i32 49
  %26 = getelementptr inbounds nuw %struct.anon.6, ptr %25, i32 0, i32 0
  %27 = load ptr, ptr %26, align 8, !tbaa !46
  %28 = load ptr, ptr getelementptr inbounds nuw (%struct._zend_compiler_globals, ptr @compiler_globals, i32 0, i32 2), align 8, !tbaa !212
  %29 = icmp eq ptr %27, %28
  br label %30

30:                                               ; preds = %23, %14
  %31 = phi i1 [ true, %14 ], [ %29, %23 ]
  store i1 %31, ptr %2, align 1
  br label %32

32:                                               ; preds = %30, %9
  %33 = load i1, ptr %2, align 1
  ret i1 %33
}

; Function Attrs: alwaysinline nounwind uwtable
define internal void @register_unresolved_class(ptr noundef %0) #3 {
  %2 = alloca ptr, align 8
  store ptr %0, ptr %2, align 8, !tbaa !19
  %3 = load ptr, ptr getelementptr inbounds nuw (%struct._zend_compiler_globals, ptr @compiler_globals, i32 0, i32 41), align 8, !tbaa !204
  %4 = icmp ne ptr %3, null
  br i1 %4, label %8, label %5

5:                                                ; preds = %1
  %6 = call noalias ptr @_emalloc_56()
  store ptr %6, ptr getelementptr inbounds nuw (%struct._zend_compiler_globals, ptr @compiler_globals, i32 0, i32 41), align 8, !tbaa !204
  %7 = load ptr, ptr getelementptr inbounds nuw (%struct._zend_compiler_globals, ptr @compiler_globals, i32 0, i32 41), align 8, !tbaa !204
  call void @_zend_hash_init(ptr noundef %7, i32 noundef 0, ptr noundef null, i1 noundef zeroext false)
  br label %8

8:                                                ; preds = %5, %1
  %9 = load ptr, ptr getelementptr inbounds nuw (%struct._zend_compiler_globals, ptr @compiler_globals, i32 0, i32 41), align 8, !tbaa !204
  %10 = load ptr, ptr %2, align 8, !tbaa !19
  %11 = call ptr @zend_hash_add_empty_element(ptr noundef %9, ptr noundef %10)
  ret void
}

; Function Attrs: alwaysinline nounwind uwtable
define internal void @zend_string_release(ptr noundef %0) #3 {
  %2 = alloca ptr, align 8
  store ptr %0, ptr %2, align 8, !tbaa !19
  %3 = load ptr, ptr %2, align 8, !tbaa !19
  %4 = getelementptr inbounds nuw %struct._zend_string, ptr %3, i32 0, i32 0
  %5 = getelementptr inbounds nuw %struct._zend_refcounted_h, ptr %4, i32 0, i32 1
  %6 = load i32, ptr %5, align 4, !tbaa !46
  %7 = call i32 @zval_gc_flags(i32 noundef %6)
  %8 = and i32 %7, 64
  %9 = icmp ne i32 %8, 0
  br i1 %9, label %29, label %10

10:                                               ; preds = %1
  %11 = load ptr, ptr %2, align 8, !tbaa !19
  %12 = getelementptr inbounds nuw %struct._zend_string, ptr %11, i32 0, i32 0
  %13 = call i32 @zend_gc_delref(ptr noundef %12)
  %14 = icmp eq i32 %13, 0
  br i1 %14, label %15, label %28

15:                                               ; preds = %10
  %16 = load ptr, ptr %2, align 8, !tbaa !19
  %17 = getelementptr inbounds nuw %struct._zend_string, ptr %16, i32 0, i32 0
  %18 = getelementptr inbounds nuw %struct._zend_refcounted_h, ptr %17, i32 0, i32 1
  %19 = load i32, ptr %18, align 4, !tbaa !46
  %20 = call i32 @zval_gc_flags(i32 noundef %19)
  %21 = and i32 %20, 128
  %22 = icmp ne i32 %21, 0
  br i1 %22, label %23, label %25

23:                                               ; preds = %15
  %24 = load ptr, ptr %2, align 8, !tbaa !19
  call void @free(ptr noundef %24) #19
  br label %27

25:                                               ; preds = %15
  %26 = load ptr, ptr %2, align 8, !tbaa !19
  call void @_efree(ptr noundef %26)
  br label %27

27:                                               ; preds = %25, %23
  br label %28

28:                                               ; preds = %27, %10
  br label %29

29:                                               ; preds = %28, %1
  ret void
}

; Function Attrs: alwaysinline nounwind uwtable
define internal ptr @zend_hash_find_ptr(ptr noundef %0, ptr noundef %1) #3 {
  %3 = alloca ptr, align 8
  %4 = alloca ptr, align 8
  %5 = alloca ptr, align 8
  %6 = alloca ptr, align 8
  %7 = alloca i32, align 4
  store ptr %0, ptr %4, align 8, !tbaa !47
  store ptr %1, ptr %5, align 8, !tbaa !19
  call void @llvm.lifetime.start.p0(i64 8, ptr %6) #19
  %8 = load ptr, ptr %4, align 8, !tbaa !47
  %9 = load ptr, ptr %5, align 8, !tbaa !19
  %10 = call ptr @zend_hash_find(ptr noundef %8, ptr noundef %9)
  store ptr %10, ptr %6, align 8, !tbaa !51
  %11 = load ptr, ptr %6, align 8, !tbaa !51
  %12 = icmp ne ptr %11, null
  br i1 %12, label %13, label %21

13:                                               ; preds = %2
  %14 = load ptr, ptr %6, align 8, !tbaa !51
  %15 = getelementptr inbounds nuw %struct._zval_struct, ptr %14, i32 0, i32 0
  %16 = load ptr, ptr %15, align 8, !tbaa !46
  %17 = icmp ne ptr %16, null
  call void @llvm.assume(i1 %17)
  %18 = load ptr, ptr %6, align 8, !tbaa !51
  %19 = getelementptr inbounds nuw %struct._zval_struct, ptr %18, i32 0, i32 0
  %20 = load ptr, ptr %19, align 8, !tbaa !46
  store ptr %20, ptr %3, align 8
  store i32 1, ptr %7, align 4
  br label %22

21:                                               ; preds = %2
  store ptr null, ptr %3, align 8
  store i32 1, ptr %7, align 4
  br label %22

22:                                               ; preds = %21, %13
  call void @llvm.lifetime.end.p0(i64 8, ptr %6) #19
  %23 = load ptr, ptr %3, align 8
  ret ptr %23
}

; Function Attrs: alwaysinline nounwind uwtable
define internal ptr @zend_string_tolower(ptr noundef %0) #3 {
  %2 = alloca ptr, align 8
  store ptr %0, ptr %2, align 8, !tbaa !19
  %3 = load ptr, ptr %2, align 8, !tbaa !19
  %4 = call ptr @zend_string_tolower_ex(ptr noundef %3, i1 noundef zeroext false)
  ret ptr %4
}

; Function Attrs: nounwind uwtable
define internal ptr @lookup_class_ex(ptr noundef %0, ptr noundef %1, i1 noundef zeroext %2) #0 {
  %4 = alloca ptr, align 8
  %5 = alloca ptr, align 8
  %6 = alloca ptr, align 8
  %7 = alloca i8, align 1
  %8 = alloca ptr, align 8
  %9 = alloca i8, align 1
  %10 = alloca ptr, align 8
  %11 = alloca i32, align 4
  store ptr %0, ptr %5, align 8, !tbaa !8
  store ptr %1, ptr %6, align 8, !tbaa !19
  %12 = zext i1 %2 to i8
  store i8 %12, ptr %7, align 1, !tbaa !13
  call void @llvm.lifetime.start.p0(i64 8, ptr %8) #19
  call void @llvm.lifetime.start.p0(i64 1, ptr %9) #19
  %13 = load i32, ptr getelementptr inbounds nuw (%struct._zend_compiler_globals, ptr @compiler_globals, i32 0, i32 21), align 4, !tbaa !183
  %14 = and i32 %13, 32768
  %15 = icmp ne i32 %14, 0
  %16 = zext i1 %15 to i8
  store i8 %16, ptr %9, align 1, !tbaa !13
  %17 = load i8, ptr getelementptr inbounds nuw (%struct._zend_executor_globals, ptr @executor_globals, i32 0, i32 59), align 8, !tbaa !210, !range !21, !noundef !22
  %18 = trunc i8 %17 to i1
  br i1 %18, label %23, label %19

19:                                               ; preds = %3
  %20 = load i8, ptr %9, align 1, !tbaa !13, !range !21, !noundef !22
  %21 = trunc i8 %20 to i1
  %22 = xor i1 %21, true
  br label %23

23:                                               ; preds = %19, %3
  %24 = phi i1 [ false, %3 ], [ %22, %19 ]
  %25 = xor i1 %24, true
  %26 = xor i1 %25, true
  %27 = zext i1 %26 to i32
  %28 = sext i32 %27 to i64
  %29 = call i64 @llvm.expect.i64(i64 %28, i64 0)
  %30 = icmp ne i64 %29, 0
  br i1 %30, label %31, label %54

31:                                               ; preds = %23
  call void @llvm.lifetime.start.p0(i64 8, ptr %10) #19
  %32 = load ptr, ptr %6, align 8, !tbaa !19
  %33 = call ptr @zend_string_tolower(ptr noundef %32)
  store ptr %33, ptr %10, align 8, !tbaa !19
  %34 = load ptr, ptr getelementptr inbounds nuw (%struct._zend_compiler_globals, ptr @compiler_globals, i32 0, i32 6), align 8, !tbaa !161
  %35 = load ptr, ptr %10, align 8, !tbaa !19
  %36 = call ptr @zend_hash_find_ptr(ptr noundef %34, ptr noundef %35)
  store ptr %36, ptr %8, align 8, !tbaa !8
  %37 = load ptr, ptr %10, align 8, !tbaa !19
  call void @zend_string_release(ptr noundef %37)
  %38 = load i8, ptr %7, align 1, !tbaa !13, !range !21, !noundef !22
  %39 = trunc i8 %38 to i1
  br i1 %39, label %40, label %52

40:                                               ; preds = %31
  %41 = load ptr, ptr %8, align 8, !tbaa !8
  %42 = icmp ne ptr %41, null
  br i1 %42, label %52, label %43

43:                                               ; preds = %40
  %44 = load ptr, ptr %6, align 8, !tbaa !19
  %45 = getelementptr inbounds nuw %struct._zend_string, ptr %44, i32 0, i32 3
  %46 = getelementptr inbounds [1 x i8], ptr %45, i64 0, i64 0
  %47 = load ptr, ptr %5, align 8, !tbaa !8
  %48 = getelementptr inbounds nuw %struct._zend_class_entry, ptr %47, i32 0, i32 1
  %49 = load ptr, ptr %48, align 8, !tbaa !70
  %50 = getelementptr inbounds nuw %struct._zend_string, ptr %49, i32 0, i32 3
  %51 = getelementptr inbounds [1 x i8], ptr %50, i64 0, i64 0
  call void (i32, ptr, ...) @zend_error_noreturn(i32 noundef 64, ptr noundef @.str.32, ptr noundef %46, ptr noundef %51) #21
  unreachable

52:                                               ; preds = %40, %31
  %53 = load ptr, ptr %8, align 8, !tbaa !8
  store ptr %53, ptr %4, align 8
  store i32 1, ptr %11, align 4
  call void @llvm.lifetime.end.p0(i64 8, ptr %10) #19
  br label %114

54:                                               ; preds = %23
  %55 = load ptr, ptr %6, align 8, !tbaa !19
  %56 = call ptr @zend_lookup_class_ex(ptr noundef %55, ptr noundef null, i32 noundef 1152)
  store ptr %56, ptr %8, align 8, !tbaa !8
  %57 = load i8, ptr getelementptr inbounds nuw (%struct._zend_compiler_globals, ptr @compiler_globals, i32 0, i32 9), align 1, !tbaa !211, !range !21, !noundef !22
  %58 = trunc i8 %57 to i1
  br i1 %58, label %59, label %62

59:                                               ; preds = %54
  %60 = load i8, ptr %9, align 1, !tbaa !13, !range !21, !noundef !22
  %61 = trunc i8 %60 to i1
  br i1 %61, label %62, label %73

62:                                               ; preds = %59, %54
  %63 = load ptr, ptr %8, align 8, !tbaa !8
  %64 = icmp ne ptr %63, null
  br i1 %64, label %65, label %67

65:                                               ; preds = %62
  %66 = load ptr, ptr %8, align 8, !tbaa !8
  store ptr %66, ptr %4, align 8
  store i32 1, ptr %11, align 4
  br label %114

67:                                               ; preds = %62
  %68 = load i8, ptr %7, align 1, !tbaa !13, !range !21, !noundef !22
  %69 = trunc i8 %68 to i1
  br i1 %69, label %70, label %72

70:                                               ; preds = %67
  %71 = load ptr, ptr %6, align 8, !tbaa !19
  call void @register_unresolved_class(ptr noundef %71)
  br label %72

72:                                               ; preds = %70, %67
  br label %113

73:                                               ; preds = %59
  %74 = load ptr, ptr %8, align 8, !tbaa !8
  %75 = icmp ne ptr %74, null
  br i1 %75, label %76, label %81

76:                                               ; preds = %73
  %77 = load ptr, ptr %8, align 8, !tbaa !8
  %78 = call zeroext i1 @class_visible(ptr noundef %77)
  br i1 %78, label %79, label %81

79:                                               ; preds = %76
  %80 = load ptr, ptr %8, align 8, !tbaa !8
  store ptr %80, ptr %4, align 8
  store i32 1, ptr %11, align 4
  br label %114

81:                                               ; preds = %76, %73
  %82 = load ptr, ptr %5, align 8, !tbaa !8
  %83 = getelementptr inbounds nuw %struct._zend_class_entry, ptr %82, i32 0, i32 1
  %84 = load ptr, ptr %83, align 8, !tbaa !70
  %85 = getelementptr inbounds nuw %struct._zend_string, ptr %84, i32 0, i32 2
  %86 = load i64, ptr %85, align 8, !tbaa !23
  %87 = load ptr, ptr %6, align 8, !tbaa !19
  %88 = getelementptr inbounds nuw %struct._zend_string, ptr %87, i32 0, i32 2
  %89 = load i64, ptr %88, align 8, !tbaa !23
  %90 = icmp eq i64 %86, %89
  br i1 %90, label %91, label %112

91:                                               ; preds = %81
  %92 = load ptr, ptr %5, align 8, !tbaa !8
  %93 = getelementptr inbounds nuw %struct._zend_class_entry, ptr %92, i32 0, i32 1
  %94 = load ptr, ptr %93, align 8, !tbaa !70
  %95 = getelementptr inbounds nuw %struct._zend_string, ptr %94, i32 0, i32 3
  %96 = getelementptr inbounds [1 x i8], ptr %95, i64 0, i64 0
  %97 = load ptr, ptr %5, align 8, !tbaa !8
  %98 = getelementptr inbounds nuw %struct._zend_class_entry, ptr %97, i32 0, i32 1
  %99 = load ptr, ptr %98, align 8, !tbaa !70
  %100 = getelementptr inbounds nuw %struct._zend_string, ptr %99, i32 0, i32 2
  %101 = load i64, ptr %100, align 8, !tbaa !23
  %102 = load ptr, ptr %6, align 8, !tbaa !19
  %103 = getelementptr inbounds nuw %struct._zend_string, ptr %102, i32 0, i32 3
  %104 = getelementptr inbounds [1 x i8], ptr %103, i64 0, i64 0
  %105 = load ptr, ptr %6, align 8, !tbaa !19
  %106 = getelementptr inbounds nuw %struct._zend_string, ptr %105, i32 0, i32 2
  %107 = load i64, ptr %106, align 8, !tbaa !23
  %108 = call i32 @zend_binary_strcasecmp(ptr noundef %96, i64 noundef %101, ptr noundef %104, i64 noundef %107)
  %109 = icmp ne i32 %108, 0
  br i1 %109, label %112, label %110

110:                                              ; preds = %91
  %111 = load ptr, ptr %5, align 8, !tbaa !8
  store ptr %111, ptr %4, align 8
  store i32 1, ptr %11, align 4
  br label %114

112:                                              ; preds = %91, %81
  br label %113

113:                                              ; preds = %112, %72
  store ptr null, ptr %4, align 8
  store i32 1, ptr %11, align 4
  br label %114

114:                                              ; preds = %113, %110, %79, %65, %52
  call void @llvm.lifetime.end.p0(i64 1, ptr %9) #19
  call void @llvm.lifetime.end.p0(i64 8, ptr %8) #19
  %115 = load ptr, ptr %4, align 8
  ret ptr %115
}