; Function Attrs: nounwind uwtable
define internal fastcc ptr @lookup_class_ex(ptr noundef readonly captures(ret: address, provenance) %0, ptr noundef %1, i1 noundef zeroext %2) unnamed_addr #2 {
  %4 = load i32, ptr getelementptr inbounds nuw (i8, ptr @compiler_globals, i64 172), align 4, !tbaa !38
  %5 = and i32 %4, 32768
  %.not29 = icmp ne i32 %5, 0
  %6 = load i8, ptr getelementptr inbounds nuw (i8, ptr @executor_globals, i64 1088), align 8, !tbaa !55, !range !80, !noundef !81
  %7 = trunc nuw i8 %6 to i1
  %.not30 = select i1 %7, i1 true, i1 %.not29
  br i1 %.not30, label %32, label %8, !prof !82

8:                                                ; preds = %3
  %9 = tail call ptr @zend_string_tolower_ex(ptr noundef %1, i1 noundef zeroext false) #17
  %10 = load ptr, ptr getelementptr inbounds nuw (i8, ptr @compiler_globals, i64 64), align 8, !tbaa !83
  %11 = tail call ptr @zend_hash_find(ptr noundef %10, ptr noundef %9) #17
  %.not.i = icmp eq ptr %11, null
  br i1 %.not.i, label %zend_hash_find_ptr.exit, label %12

12:                                               ; preds = %8
  %13 = load ptr, ptr %11, align 8, !tbaa !21, !nonnull !81, !noundef !81
  br label %zend_hash_find_ptr.exit

zend_hash_find_ptr.exit:                          ; preds = %8, %12
  %.0.i = phi ptr [ %13, %12 ], [ null, %8 ]
  %14 = getelementptr inbounds nuw i8, ptr %9, i64 4
  %15 = load i32, ptr %14, align 4, !tbaa !21
  %16 = and i32 %15, 64
  %.not.i35 = icmp eq i32 %16, 0
  br i1 %.not.i35, label %17, label %zend_string_release.exit

17:                                               ; preds = %zend_hash_find_ptr.exit
  %18 = load i32, ptr %9, align 4, !tbaa !84
  %19 = icmp ne i32 %18, 0
  tail call void @llvm.assume(i1 %19)
  %20 = add i32 %18, -1
  store i32 %20, ptr %9, align 4, !tbaa !84
  %21 = icmp eq i32 %20, 0
  br i1 %21, label %22, label %zend_string_release.exit

22:                                               ; preds = %17
  %23 = and i32 %15, 128
  %.not5.i = icmp eq i32 %23, 0
  br i1 %.not5.i, label %25, label %24

24:                                               ; preds = %22
  tail call void @free(ptr noundef nonnull %9) #17
  br label %zend_string_release.exit

25:                                               ; preds = %22
  tail call void @_efree(ptr noundef nonnull %9) #17
  br label %zend_string_release.exit

zend_string_release.exit:                         ; preds = %zend_hash_find_ptr.exit, %17, %24, %25
  %26 = icmp eq ptr %.0.i, null
  %or.cond.not = and i1 %2, %26
  br i1 %or.cond.not, label %27, label %class_visible.exit.thread

27:                                               ; preds = %zend_string_release.exit
  %28 = getelementptr inbounds nuw i8, ptr %1, i64 24
  %29 = getelementptr inbounds nuw i8, ptr %0, i64 8
  %30 = load ptr, ptr %29, align 8, !tbaa !37
  %31 = getelementptr inbounds nuw i8, ptr %30, i64 24
  tail call void (i32, ptr, ...) @zend_error_noreturn(i32 noundef 64, ptr noundef nonnull @.str.32, ptr noundef nonnull %28, ptr noundef nonnull %31) #19
  unreachable

32:                                               ; preds = %3
  %33 = tail call ptr @zend_lookup_class_ex(ptr noundef %1, ptr noundef null, i32 noundef 1152) #17
  %34 = load i8, ptr getelementptr inbounds nuw (i8, ptr @compiler_globals, i64 81), align 1, !tbaa !85, !range !80, !noundef !81
  %35 = trunc nuw i8 %34 to i1
  %.not = xor i1 %35, true
  %brmerge = select i1 %.not, i1 true, i1 %.not29
  %.not33 = icmp eq ptr %33, null
  br i1 %brmerge, label %36, label %44

36:                                               ; preds = %32
  br i1 %.not33, label %37, label %class_visible.exit.thread

37:                                               ; preds = %36
  br i1 %2, label %38, label %71

38:                                               ; preds = %37
  %39 = load ptr, ptr getelementptr inbounds nuw (i8, ptr @compiler_globals, i64 544), align 8, !tbaa !190
  %.not.i36 = icmp eq ptr %39, null
  br i1 %.not.i36, label %40, label %register_unresolved_class.exit

40:                                               ; preds = %38
  %41 = tail call noalias ptr @_emalloc_56() #17
  store ptr %41, ptr getelementptr inbounds nuw (i8, ptr @compiler_globals, i64 544), align 8, !tbaa !190
  tail call void @_zend_hash_init(ptr noundef %41, i32 noundef 0, ptr noundef null, i1 noundef zeroext false) #17
  %.pre = load ptr, ptr getelementptr inbounds nuw (i8, ptr @compiler_globals, i64 544), align 8, !tbaa !190
  br label %register_unresolved_class.exit

register_unresolved_class.exit:                   ; preds = %38, %40
  %42 = phi ptr [ %39, %38 ], [ %.pre, %40 ]
  %43 = tail call ptr @zend_hash_add_empty_element(ptr noundef %42, ptr noundef %1) #17
  br label %71

44:                                               ; preds = %32
  br i1 %.not33, label %59, label %45

45:                                               ; preds = %44
  %46 = load i8, ptr %33, align 8, !tbaa !86
  %47 = icmp eq i8 %46, 1
  br i1 %47, label %48, label %51

48:                                               ; preds = %45
  %49 = load i32, ptr getelementptr inbounds nuw (i8, ptr @compiler_globals, i64 172), align 4, !tbaa !38
  %50 = and i32 %49, 16
  %.not5.i39 = icmp eq i32 %50, 0
  br i1 %.not5.i39, label %class_visible.exit.thread, label %59

51:                                               ; preds = %45
  %52 = icmp eq i8 %46, 2
  tail call void @llvm.assume(i1 %52)
  %53 = load i32, ptr getelementptr inbounds nuw (i8, ptr @compiler_globals, i64 172), align 4, !tbaa !38
  %54 = and i32 %53, 8192
  %.not.i37 = icmp eq i32 %54, 0
  br i1 %.not.i37, label %class_visible.exit.thread, label %class_visible.exit

class_visible.exit:                               ; preds = %51
  %55 = getelementptr inbounds nuw i8, ptr %33, i64 504
  %56 = load ptr, ptr %55, align 8, !tbaa !21
  %57 = load ptr, ptr getelementptr inbounds nuw (i8, ptr @compiler_globals, i64 32), align 8, !tbaa !87
  %58 = icmp eq ptr %56, %57
  br i1 %58, label %class_visible.exit.thread, label %59

59:                                               ; preds = %48, %class_visible.exit, %44
  %60 = getelementptr inbounds nuw i8, ptr %0, i64 8
  %61 = load ptr, ptr %60, align 8, !tbaa !37
  %62 = getelementptr inbounds nuw i8, ptr %61, i64 16
  %63 = load i64, ptr %62, align 8, !tbaa !13
  %64 = getelementptr inbounds nuw i8, ptr %1, i64 16
  %65 = load i64, ptr %64, align 8, !tbaa !13
  %66 = icmp eq i64 %63, %65
  br i1 %66, label %67, label %71

67:                                               ; preds = %59
  %68 = getelementptr inbounds nuw i8, ptr %61, i64 24
  %69 = getelementptr inbounds nuw i8, ptr %1, i64 24
  %70 = tail call i32 @zend_binary_strcasecmp(ptr noundef nonnull %68, i64 noundef %63, ptr noundef nonnull %69, i64 noundef %63) #17
  %.not32 = icmp eq i32 %70, 0
  br i1 %.not32, label %class_visible.exit.thread, label %71

71:                                               ; preds = %59, %67, %37, %register_unresolved_class.exit
  br label %class_visible.exit.thread

class_visible.exit.thread:                        ; preds = %51, %48, %67, %class_visible.exit, %36, %zend_string_release.exit, %71
  %.0 = phi ptr [ null, %71 ], [ %.0.i, %zend_string_release.exit ], [ %33, %36 ], [ %33, %class_visible.exit ], [ %0, %67 ], [ %33, %48 ], [ %33, %51 ]
  ret ptr %.0
}